target datalayout = "e-m:e-p270:32:32-p271:32:32-p272:64:64-i64:64-i128:128-f80:128-n8:16:32:64-S128"
target triple = "x86_64-pc-linux-gnu"

%struct.stat = type { i64, i64, i64, i32, i32, i32, i32, i64, i64, i64, i64, %struct.timespec, %struct.timespec, %struct.timespec, [3 x i64] }
%struct.timespec = type { i64, i64 }
%"class.pxrInternal_v0_24__pxrReserved__::TfCallContext" = type <{ ptr, ptr, i64, ptr, i8, [7 x i8] }>
%"class.std::__cxx11::basic_string" = type { %"struct.std::__cxx11::basic_string<char>::_Alloc_hider", i64, %union.anon }
%"struct.std::__cxx11::basic_string<char>::_Alloc_hider" = type { ptr }
%union.anon = type { i64, [8 x i8] }

@.str.4 = private unnamed_addr constant [126 x i8] c"generated/home/dtcxzyw/WorkSpace/Projects/compilers/llvm-opt-benchmark/bench/openusd/OpenUSD/pxr/base/tf/atomicRenameUtil.cpp\00", align 1
@__func__._ZN32pxrInternal_v0_24__pxrReserved__23Tf_AtomicRenameFileOverERKNSt7__cxx1112basic_stringIcSt11char_traitsIcESaIcEEES7_PS5_ = private unnamed_addr constant [24 x i8] c"Tf_AtomicRenameFileOver\00", align 1
@.str.5 = private unnamed_addr constant [54 x i8] c"Unable to set permissions for temporary file '%s': %s\00", align 1
@.str.6 = private unnamed_addr constant [49 x i8] c"Failed to rename temporary file '%s' to '%s': %s\00", align 1

; Function Attrs: mustprogress nounwind uwtable
define linkonce_odr void @_ZN32pxrInternal_v0_24__pxrReserved__13TfCallContextC2EPKcS2_mS2_(ptr noundef nonnull align 8 dereferenceable(33) %0, ptr noundef %1, ptr noundef %2, i64 noundef %3, ptr noundef %4) unnamed_addr #2 comdat align 2 {
  %6 = alloca ptr, align 8
  %7 = alloca ptr, align 8
  %8 = alloca ptr, align 8
  %9 = alloca i64, align 8
  %10 = alloca ptr, align 8
  store ptr %0, ptr %6, align 8
  store ptr %1, ptr %7, align 8
  store ptr %2, ptr %8, align 8
  store i64 %3, ptr %9, align 8
  store ptr %4, ptr %10, align 8
  %11 = load ptr, ptr %6, align 8
  %12 = getelementptr inbounds nuw %"class.pxrInternal_v0_24__pxrReserved__::TfCallContext", ptr %11, i32 0, i32 0
  %13 = load ptr, ptr %7, align 8
  store ptr %13, ptr %12, align 8
  %14 = getelementptr inbounds nuw %"class.pxrInternal_v0_24__pxrReserved__::TfCallContext", ptr %11, i32 0, i32 1
  %15 = load ptr, ptr %8, align 8
  store ptr %15, ptr %14, align 8
  %16 = getelementptr inbounds nuw %"class.pxrInternal_v0_24__pxrReserved__::TfCallContext", ptr %11, i32 0, i32 2
  %17 = load i64, ptr %9, align 8
  store i64 %17, ptr %16, align 8
  %18 = getelementptr inbounds nuw %"class.pxrInternal_v0_24__pxrReserved__::TfCallContext", ptr %11, i32 0, i32 3
  %19 = load ptr, ptr %10, align 8
  store ptr %19, ptr %18, align 8
  %20 = getelementptr inbounds nuw %"class.pxrInternal_v0_24__pxrReserved__::TfCallContext", ptr %11, i32 0, i32 4
  store i8 0, ptr %20, align 8
  ret void
}

; Function Attrs: mustprogress uwtable
define noundef zeroext i1 @_ZN32pxrInternal_v0_24__pxrReserved__23Tf_AtomicRenameFileOverERKNSt7__cxx1112basic_stringIcSt11char_traitsIcESaIcEEES7_PS5_(ptr noundef nonnull align 8 dereferenceable(32) %0, ptr noundef nonnull align 8 dereferenceable(32) %1, ptr noundef %2) #0 personality ptr @__gxx_personality_v0 {
  %4 = alloca ptr, align 8
  %5 = alloca ptr, align 8
  %6 = alloca ptr, align 8
  %7 = alloca i8, align 1
  %8 = alloca i32, align 4
  %9 = alloca %struct.stat, align 8
  %10 = alloca i32, align 4
  %11 = alloca %"class.pxrInternal_v0_24__pxrReserved__::TfCallContext", align 8
  %12 = alloca %"class.std::__cxx11::basic_string", align 8
  %13 = alloca ptr, align 8
  %14 = alloca i32, align 4
  %15 = alloca %"class.std::__cxx11::basic_string", align 8
  %16 = alloca %"class.std::__cxx11::basic_string", align 8
  store ptr %0, ptr %4, align 8
  store ptr %1, ptr %5, align 8
  store ptr %2, ptr %6, align 8
  store i8 1, ptr %7, align 1
  store i32 0, ptr %8, align 4
  %17 = load ptr, ptr %5, align 8
  %18 = call noundef ptr @_ZNKSt7__cxx1112basic_stringIcSt11char_traitsIcESaIcEE5c_strEv(ptr noundef nonnull align 8 dereferenceable(32) %17) #6
  %19 = call i32 @stat(ptr noundef %18, ptr noundef %9) #6
  %20 = icmp ne i32 %19, -1
  br i1 %20, label %21, label %25

21:                                               ; preds = %3
  %22 = getelementptr inbounds nuw %struct.stat, ptr %9, i32 0, i32 3
  %23 = load i32, ptr %22, align 8
  %24 = and i32 %23, 438
  store i32 %24, ptr %8, align 4
  br label %32

25:                                               ; preds = %3
  %26 = call i32 @umask(i32 noundef 0) #6
  store i32 %26, ptr %10, align 4
  %27 = load i32, ptr %10, align 4
  %28 = call i32 @umask(i32 noundef %27) #6
  %29 = load i32, ptr %10, align 4
  %30 = xor i32 %29, -1
  %31 = and i32 438, %30
  store i32 %31, ptr %8, align 4
  br label %32

32:                                               ; preds = %25, %21
  %33 = load ptr, ptr %4, align 8
  %34 = call noundef ptr @_ZNKSt7__cxx1112basic_stringIcSt11char_traitsIcESaIcEE5c_strEv(ptr noundef nonnull align 8 dereferenceable(32) %33) #6
  %35 = load i32, ptr %8, align 4
  %36 = call i32 @chmod(ptr noundef %34, i32 noundef %35) #6
  %37 = icmp ne i32 %36, 0
  br i1 %37, label %38, label %49

38:                                               ; preds = %32
  call void @_ZN32pxrInternal_v0_24__pxrReserved__13TfCallContextC2EPKcS2_mS2_(ptr noundef nonnull align 8 dereferenceable(33) %11, ptr noundef @.str.4, ptr noundef @__func__._ZN32pxrInternal_v0_24__pxrReserved__23Tf_AtomicRenameFileOverERKNSt7__cxx1112basic_stringIcSt11char_traitsIcESaIcEEES7_PS5_, i64 noundef 87, ptr noundef @__PRETTY_FUNCTION__._ZN32pxrInternal_v0_24__pxrReserved__23Tf_AtomicRenameFileOverERKNSt7__cxx1112basic_stringIcSt11char_traitsIcESaIcEEES7_PS5_)
  %39 = load ptr, ptr %4, align 8
  %40 = call noundef ptr @_ZNKSt7__cxx1112basic_stringIcSt11char_traitsIcESaIcEE5c_strEv(ptr noundef nonnull align 8 dereferenceable(32) %39) #6
  %41 = call ptr @__errno_location() #8
  %42 = load i32, ptr %41, align 4
  call void @_ZN32pxrInternal_v0_24__pxrReserved__12ArchStrerrorB5cxx11Ei(ptr dead_on_unwind writable sret(%"class.std::__cxx11::basic_string") align 8 %12, i32 noundef %42)
  %43 = call noundef ptr @_ZNKSt7__cxx1112basic_stringIcSt11char_traitsIcESaIcEE5c_strEv(ptr noundef nonnull align 8 dereferenceable(32) %12) #6
  invoke void (ptr, ptr, ...) @_ZN32pxrInternal_v0_24__pxrReserved__20Tf_PostWarningHelperERKNS_13TfCallContextEPKcz(ptr noundef nonnull align 8 dereferenceable(33) %11, ptr noundef @.str.5, ptr noundef %40, ptr noundef %43)
          to label %44 unwind label %45

44:                                               ; preds = %38
  call void @_ZNSt7__cxx1112basic_stringIcSt11char_traitsIcESaIcEED1Ev(ptr noundef nonnull align 8 dereferenceable(32) %12) #6
  br label %49

45:                                               ; preds = %38
  %46 = landingpad { ptr, i32 }
          cleanup
  %47 = extractvalue { ptr, i32 } %46, 0
  store ptr %47, ptr %13, align 8
  %48 = extractvalue { ptr, i32 } %46, 1
  store i32 %48, ptr %14, align 4
  call void @_ZNSt7__cxx1112basic_stringIcSt11char_traitsIcESaIcEED1Ev(ptr noundef nonnull align 8 dereferenceable(32) %12) #6
  br label %74

49:                                               ; preds = %44, %32
  %50 = load ptr, ptr %4, align 8
  %51 = call noundef ptr @_ZNKSt7__cxx1112basic_stringIcSt11char_traitsIcESaIcEE5c_strEv(ptr noundef nonnull align 8 dereferenceable(32) %50) #6
  %52 = load ptr, ptr %5, align 8
  %53 = call noundef ptr @_ZNKSt7__cxx1112basic_stringIcSt11char_traitsIcESaIcEE5c_strEv(ptr noundef nonnull align 8 dereferenceable(32) %52) #6
  %54 = call i32 @rename(ptr noundef %51, ptr noundef %53) #6
  %55 = icmp ne i32 %54, 0
  br i1 %55, label %56, label %71

56:                                               ; preds = %49
  %57 = load ptr, ptr %4, align 8
  %58 = call noundef ptr @_ZNKSt7__cxx1112basic_stringIcSt11char_traitsIcESaIcEE5c_strEv(ptr noundef nonnull align 8 dereferenceable(32) %57) #6
  %59 = load ptr, ptr %5, align 8
  %60 = call noundef ptr @_ZNKSt7__cxx1112basic_stringIcSt11char_traitsIcESaIcEE5c_strEv(ptr noundef nonnull align 8 dereferenceable(32) %59) #6
  %61 = call ptr @__errno_location() #8
  %62 = load i32, ptr %61, align 4
  call void @_ZN32pxrInternal_v0_24__pxrReserved__12ArchStrerrorB5cxx11Ei(ptr dead_on_unwind writable sret(%"class.std::__cxx11::basic_string") align 8 %16, i32 noundef %62)
  %63 = call noundef ptr @_ZNKSt7__cxx1112basic_stringIcSt11char_traitsIcESaIcEE5c_strEv(ptr noundef nonnull align 8 dereferenceable(32) %16) #6
  invoke void (ptr, ptr, ...) @_ZN32pxrInternal_v0_24__pxrReserved__14TfStringPrintfB5cxx11EPKcz(ptr dead_on_unwind writable sret(%"class.std::__cxx11::basic_string") align 8 %15, ptr noundef @.str.6, ptr noundef %58, ptr noundef %60, ptr noundef %63)
          to label %64 unwind label %67

64:                                               ; preds = %56
  %65 = load ptr, ptr %6, align 8
  %66 = call noundef nonnull align 8 dereferenceable(32) ptr @_ZNSt7__cxx1112basic_stringIcSt11char_traitsIcESaIcEEaSEOS4_(ptr noundef nonnull align 8 dereferenceable(32) %65, ptr noundef nonnull align 8 dereferenceable(32) %15) #6
  call void @_ZNSt7__cxx1112basic_stringIcSt11char_traitsIcESaIcEED1Ev(ptr noundef nonnull align 8 dereferenceable(32) %15) #6
  call void @_ZNSt7__cxx1112basic_stringIcSt11char_traitsIcESaIcEED1Ev(ptr noundef nonnull align 8 dereferenceable(32) %16) #6
  store i8 0, ptr %7, align 1
  br label %71

67:                                               ; preds = %56
  %68 = landingpad { ptr, i32 }
          cleanup
  %69 = extractvalue { ptr, i32 } %68, 0
  store ptr %69, ptr %13, align 8
  %70 = extractvalue { ptr, i32 } %68, 1
  store i32 %70, ptr %14, align 4
  call void @_ZNSt7__cxx1112basic_stringIcSt11char_traitsIcESaIcEED1Ev(ptr noundef nonnull align 8 dereferenceable(32) %16) #6
  br label %74

71:                                               ; preds = %64, %49
  %72 = load i8, ptr %7, align 1
  %73 = trunc i8 %72 to i1
  ret i1 %73

74:                                               ; preds = %67, %45
  %75 = load ptr, ptr %13, align 8
  %76 = load i32, ptr %14, align 4
  %77 = insertvalue { ptr, i32 } poison, ptr %75, 0
  %78 = insertvalue { ptr, i32 } %77, i32 %76, 1
  resume { ptr, i32 } %78
}