; Function Attrs: mustprogress uwtable
define noundef zeroext i1 @_ZN32pxrInternal_v0_24__pxrReserved__23Tf_AtomicRenameFileOverERKNSt7__cxx1112basic_stringIcSt11char_traitsIcESaIcEEES7_PS5_(ptr noundef nonnull align 8 dereferenceable(32) %0, ptr noundef nonnull align 8 dereferenceable(32) %1, ptr noundef %2) local_unnamed_addr #0 personality ptr @__gxx_personality_v0 {
  %4 = alloca %struct.stat, align 8
  %5 = alloca %"class.pxrInternal_v0_24__pxrReserved__::TfCallContext", align 8
  %6 = alloca %"class.std::__cxx11::basic_string", align 8
  %7 = alloca %"class.std::__cxx11::basic_string", align 8
  %8 = alloca %"class.std::__cxx11::basic_string", align 8
  %9 = tail call noundef ptr @_ZNKSt7__cxx1112basic_stringIcSt11char_traitsIcESaIcEE5c_strEv(ptr noundef nonnull align 8 dereferenceable(32) %1) #11
  %10 = call i32 @stat(ptr noundef %9, ptr noundef nonnull %4) #11
  %.not = icmp eq i32 %10, -1
  br i1 %.not, label %15, label %11

11:                                               ; preds = %3
  %12 = getelementptr inbounds nuw i8, ptr %4, i64 24
  %13 = load i32, ptr %12, align 8
  %14 = and i32 %13, 438
  br label %20

15:                                               ; preds = %3
  %16 = tail call i32 @umask(i32 noundef 0) #11
  %17 = tail call i32 @umask(i32 noundef %16) #11
  %18 = and i32 %16, 438
  %19 = xor i32 %18, 438
  br label %20

20:                                               ; preds = %15, %11
  %.015 = phi i32 [ %14, %11 ], [ %19, %15 ]
  %21 = tail call noundef ptr @_ZNKSt7__cxx1112basic_stringIcSt11char_traitsIcESaIcEE5c_strEv(ptr noundef nonnull align 8 dereferenceable(32) %0) #11
  %22 = tail call i32 @chmod(ptr noundef %21, i32 noundef %.015) #11
  %.not16 = icmp eq i32 %22, 0
  br i1 %.not16, label %35, label %23

23:                                               ; preds = %20
  store ptr @.str.4, ptr %5, align 8
  %24 = getelementptr inbounds nuw i8, ptr %5, i64 8
  store ptr @__func__._ZN32pxrInternal_v0_24__pxrReserved__23Tf_AtomicRenameFileOverERKNSt7__cxx1112basic_stringIcSt11char_traitsIcESaIcEEES7_PS5_, ptr %24, align 8
  %25 = getelementptr inbounds nuw i8, ptr %5, i64 16
  store i64 87, ptr %25, align 8
  %26 = getelementptr inbounds nuw i8, ptr %5, i64 24
  store ptr @__PRETTY_FUNCTION__._ZN32pxrInternal_v0_24__pxrReserved__23Tf_AtomicRenameFileOverERKNSt7__cxx1112basic_stringIcSt11char_traitsIcESaIcEEES7_PS5_, ptr %26, align 8
  %27 = getelementptr inbounds nuw i8, ptr %5, i64 32
  store i8 0, ptr %27, align 8
  %28 = tail call noundef ptr @_ZNKSt7__cxx1112basic_stringIcSt11char_traitsIcESaIcEE5c_strEv(ptr noundef nonnull align 8 dereferenceable(32) %0) #11
  %29 = tail call ptr @__errno_location() #12
  %30 = load i32, ptr %29, align 4
  call void @_ZN32pxrInternal_v0_24__pxrReserved__12ArchStrerrorB5cxx11Ei(ptr dead_on_unwind nonnull writable sret(%"class.std::__cxx11::basic_string") align 8 %6, i32 noundef %30)
  %31 = call noundef ptr @_ZNKSt7__cxx1112basic_stringIcSt11char_traitsIcESaIcEE5c_strEv(ptr noundef nonnull align 8 dereferenceable(32) %6) #11
  invoke void (ptr, ptr, ...) @_ZN32pxrInternal_v0_24__pxrReserved__20Tf_PostWarningHelperERKNS_13TfCallContextEPKcz(ptr noundef nonnull align 8 dereferenceable(33) %5, ptr noundef nonnull @.str.5, ptr noundef %28, ptr noundef %31)
          to label %32 unwind label %33

32:                                               ; preds = %23
  call void @_ZNSt7__cxx1112basic_stringIcSt11char_traitsIcESaIcEED1Ev(ptr noundef nonnull align 8 dereferenceable(32) %6) #11
  br label %35

33:                                               ; preds = %23
  %34 = landingpad { ptr, i32 }
          cleanup
  br label %50

35:                                               ; preds = %32, %20
  %36 = call noundef ptr @_ZNKSt7__cxx1112basic_stringIcSt11char_traitsIcESaIcEE5c_strEv(ptr noundef nonnull align 8 dereferenceable(32) %0) #11
  %37 = call noundef ptr @_ZNKSt7__cxx1112basic_stringIcSt11char_traitsIcESaIcEE5c_strEv(ptr noundef nonnull align 8 dereferenceable(32) %1) #11
  %38 = call i32 @rename(ptr noundef %36, ptr noundef %37) #11
  %.not17 = icmp eq i32 %38, 0
  br i1 %.not17, label %49, label %39

39:                                               ; preds = %35
  %40 = call noundef ptr @_ZNKSt7__cxx1112basic_stringIcSt11char_traitsIcESaIcEE5c_strEv(ptr noundef nonnull align 8 dereferenceable(32) %0) #11
  %41 = call noundef ptr @_ZNKSt7__cxx1112basic_stringIcSt11char_traitsIcESaIcEE5c_strEv(ptr noundef nonnull align 8 dereferenceable(32) %1) #11
  %42 = tail call ptr @__errno_location() #12
  %43 = load i32, ptr %42, align 4
  call void @_ZN32pxrInternal_v0_24__pxrReserved__12ArchStrerrorB5cxx11Ei(ptr dead_on_unwind nonnull writable sret(%"class.std::__cxx11::basic_string") align 8 %8, i32 noundef %43)
  %44 = call noundef ptr @_ZNKSt7__cxx1112basic_stringIcSt11char_traitsIcESaIcEE5c_strEv(ptr noundef nonnull align 8 dereferenceable(32) %8) #11
  invoke void (ptr, ptr, ...) @_ZN32pxrInternal_v0_24__pxrReserved__14TfStringPrintfB5cxx11EPKcz(ptr dead_on_unwind nonnull writable sret(%"class.std::__cxx11::basic_string") align 8 %7, ptr noundef nonnull @.str.6, ptr noundef %40, ptr noundef %41, ptr noundef %44)
          to label %45 unwind label %47

45:                                               ; preds = %39
  %46 = call noundef nonnull align 8 dereferenceable(32) ptr @_ZNSt7__cxx1112basic_stringIcSt11char_traitsIcESaIcEEaSEOS4_(ptr noundef nonnull align 8 dereferenceable(32) %2, ptr noundef nonnull align 8 dereferenceable(32) %7) #11
  call void @_ZNSt7__cxx1112basic_stringIcSt11char_traitsIcESaIcEED1Ev(ptr noundef nonnull align 8 dereferenceable(32) %7) #11
  call void @_ZNSt7__cxx1112basic_stringIcSt11char_traitsIcESaIcEED1Ev(ptr noundef nonnull align 8 dereferenceable(32) %8) #11
  br label %49

47:                                               ; preds = %39
  %48 = landingpad { ptr, i32 }
          cleanup
  br label %50

49:                                               ; preds = %45, %35
  ret i1 %.not17

50:                                               ; preds = %47, %33
  %.sink = phi ptr [ %8, %47 ], [ %6, %33 ]
  %.pn = phi { ptr, i32 } [ %48, %47 ], [ %34, %33 ]
  call void @_ZNSt7__cxx1112basic_stringIcSt11char_traitsIcESaIcEED1Ev(ptr noundef nonnull align 8 dereferenceable(32) %.sink) #11
  resume { ptr, i32 } %.pn
}